; Function Attrs: mustprogress nounwind uwtable
define hidden noundef ptr @_ZNK10JavaThread7vthreadEv(ptr nocapture noundef nonnull readonly align 8 dereferenceable(1800) %0) local_unnamed_addr #0 align 2 {
  %2 = getelementptr inbounds i8, ptr %0, i64 904
  %3 = load ptr, ptr %2, align 8
  %4 = icmp eq ptr %3, null
  br i1 %4, label %_ZNK9OopHandle7resolveEv.exit, label %5

5:                                                ; preds = %1
  %6 = load ptr, ptr @_ZN14AccessInternal15RuntimeDispatchILm548932EP7oopDescLNS_11BarrierTypeE2EE10_load_funcE, align 8
  %7 = tail call noundef ptr %6(ptr noundef nonnull %3) #21
  br label %_ZNK9OopHandle7resolveEv.exit

_ZNK9OopHandle7resolveEv.exit:                    ; preds = %1, %5
  %8 = phi ptr [ %7, %5 ], [ null, %1 ]
  ret ptr %8
}